target datalayout = "e-m:e-p270:32:32-p271:32:32-p272:64:64-i64:64-i128:128-f80:128-n8:16:32:64-S128"
target triple = "x86_64-unknown-linux-gnu"

%"class.zmq::dealer_t" = type { %"class.zmq::socket_base_t.base", [7 x i8], %"class.zmq::fq_t", %"class.zmq::lb_t", i8, [7 x i8] }
%"class.zmq::socket_base_t.base" = type <{ %"class.zmq::own_t.base", [4 x i8], %"class.zmq::array_item_t.base", [4 x i8], %"struct.zmq::i_poll_events", %"struct.zmq::i_pipe_events", %"class.zmq::mutex_t", %"class.std::multimap", %"class.zmq::socket_base_t::inprocs_t", i32, i8, i8, [2 x i8], ptr, %"class.zmq::array_t", ptr, ptr, i64, i32, i8, [3 x i8], %"class.zmq::clock_t", ptr, i64, %"class.std::__cxx11::basic_string", i8, [7 x i8], ptr, %"class.zmq::mutex_t", i8 }>
%"class.zmq::own_t.base" = type <{ %"class.zmq::object_t.base", [4 x i8], %"struct.zmq::options_t", i8, [7 x i8], %"class.zmq::atomic_counter_t", i64, ptr, %"class.std::set.28", i32 }>
%"class.zmq::object_t.base" = type <{ ptr, ptr, i32 }>
%"struct.zmq::options_t" = type { i32, i32, i64, i8, [256 x i8], i32, i32, i32, i32, i32, i32, i32, i32, i8, %"struct.zmq::atomic_value_t", i32, i32, i32, i32, i32, i32, i64, i32, i32, i8, i32, i8, i8, i8, i8, i8, %"class.std::__cxx11::basic_string", %"class.std::__cxx11::basic_string", %"class.std::__cxx11::basic_string", i32, i32, i32, i32, %"class.std::vector", %"class.std::set", %"class.std::set", %"class.std::set.6", i32, i32, %"class.std::__cxx11::basic_string", %"class.std::__cxx11::basic_string", %"class.std::__cxx11::basic_string", [32 x i8], [32 x i8], [32 x i8], %"class.std::__cxx11::basic_string", %"class.std::__cxx11::basic_string", i32, i32, i8, i32, i8, i32, i8, i16, i32, i32, i32, %"class.std::__cxx11::basic_string", i8, i8, i8, i32, i32, i8, i32, %"class.std::map", i32, %"class.std::__cxx11::basic_string", %"class.std::__cxx11::basic_string", %"class.std::__cxx11::basic_string", %"class.std::__cxx11::basic_string", i8, %"class.std::vector.21", i8, %"class.std::vector.21", i8, %"class.std::vector.21", i8, i32, i8, i32, i32, i32, i32, i32, i8, i32 }
%"struct.zmq::atomic_value_t" = type { %"struct.std::atomic" }
%"struct.std::atomic" = type { %"struct.std::__atomic_base" }
%"struct.std::__atomic_base" = type { i32 }
%"class.std::vector" = type { %"struct.std::_Vector_base" }
%"struct.std::_Vector_base" = type { %"struct.std::_Vector_base<zmq::tcp_address_mask_t, std::allocator<zmq::tcp_address_mask_t>>::_Vector_impl" }
%"struct.std::_Vector_base<zmq::tcp_address_mask_t, std::allocator<zmq::tcp_address_mask_t>>::_Vector_impl" = type { %"struct.std::_Vector_base<zmq::tcp_address_mask_t, std::allocator<zmq::tcp_address_mask_t>>::_Vector_impl_data" }
%"struct.std::_Vector_base<zmq::tcp_address_mask_t, std::allocator<zmq::tcp_address_mask_t>>::_Vector_impl_data" = type { ptr, ptr, ptr }
%"class.std::set" = type { %"class.std::_Rb_tree" }
%"class.std::_Rb_tree" = type { %"struct.std::_Rb_tree<unsigned int, unsigned int, std::_Identity<unsigned int>, std::less<unsigned int>>::_Rb_tree_impl" }
%"struct.std::_Rb_tree<unsigned int, unsigned int, std::_Identity<unsigned int>, std::less<unsigned int>>::_Rb_tree_impl" = type { %"struct.std::_Rb_tree_key_compare", %"struct.std::_Rb_tree_header" }
%"struct.std::_Rb_tree_key_compare" = type { %"struct.std::less" }
%"struct.std::less" = type { i8 }
%"struct.std::_Rb_tree_header" = type { %"struct.std::_Rb_tree_node_base", i64 }
%"struct.std::_Rb_tree_node_base" = type { i32, ptr, ptr, ptr }
%"class.std::set.6" = type { %"class.std::_Rb_tree.7" }
%"class.std::_Rb_tree.7" = type { %"struct.std::_Rb_tree<int, int, std::_Identity<int>, std::less<int>>::_Rb_tree_impl" }
%"struct.std::_Rb_tree<int, int, std::_Identity<int>, std::less<int>>::_Rb_tree_impl" = type { %"struct.std::_Rb_tree_key_compare.11", %"struct.std::_Rb_tree_header" }
%"struct.std::_Rb_tree_key_compare.11" = type { %"struct.std::less.12" }
%"struct.std::less.12" = type { i8 }
%"class.std::map" = type { %"class.std::_Rb_tree.14" }
%"class.std::_Rb_tree.14" = type { %"struct.std::_Rb_tree<std::__cxx11::basic_string<char>, std::pair<const std::__cxx11::basic_string<char>, std::__cxx11::basic_string<char>>, std::_Select1st<std::pair<const std::__cxx11::basic_string<char>, std::__cxx11::basic_string<char>>>, std::less<std::__cxx11::basic_string<char>>>::_Rb_tree_impl" }
%"struct.std::_Rb_tree<std::__cxx11::basic_string<char>, std::pair<const std::__cxx11::basic_string<char>, std::__cxx11::basic_string<char>>, std::_Select1st<std::pair<const std::__cxx11::basic_string<char>, std::__cxx11::basic_string<char>>>, std::less<std::__cxx11::basic_string<char>>>::_Rb_tree_impl" = type { %"struct.std::_Rb_tree_key_compare.18", %"struct.std::_Rb_tree_header" }
%"struct.std::_Rb_tree_key_compare.18" = type { %"struct.std::less.19" }
%"struct.std::less.19" = type { i8 }
%"class.std::vector.21" = type { %"struct.std::_Vector_base.22" }
%"struct.std::_Vector_base.22" = type { %"struct.std::_Vector_base<unsigned char, std::allocator<unsigned char>>::_Vector_impl" }
%"struct.std::_Vector_base<unsigned char, std::allocator<unsigned char>>::_Vector_impl" = type { %"struct.std::_Vector_base<unsigned char, std::allocator<unsigned char>>::_Vector_impl_data" }
%"struct.std::_Vector_base<unsigned char, std::allocator<unsigned char>>::_Vector_impl_data" = type { ptr, ptr, ptr }
%"class.zmq::atomic_counter_t" = type { %"struct.std::atomic.26", [4 x i8] }
%"struct.std::atomic.26" = type { %"struct.std::__atomic_base.27" }
%"struct.std::__atomic_base.27" = type { i32 }
%"class.std::set.28" = type { %"class.std::_Rb_tree.29" }
%"class.std::_Rb_tree.29" = type { %"struct.std::_Rb_tree<zmq::own_t *, zmq::own_t *, std::_Identity<zmq::own_t *>, std::less<zmq::own_t *>>::_Rb_tree_impl" }
%"struct.std::_Rb_tree<zmq::own_t *, zmq::own_t *, std::_Identity<zmq::own_t *>, std::less<zmq::own_t *>>::_Rb_tree_impl" = type { %"struct.std::_Rb_tree_key_compare.33", %"struct.std::_Rb_tree_header" }
%"struct.std::_Rb_tree_key_compare.33" = type { %"struct.std::less.34" }
%"struct.std::less.34" = type { i8 }
%"class.zmq::array_item_t.base" = type <{ ptr, i32 }>
%"struct.zmq::i_poll_events" = type { ptr }
%"struct.zmq::i_pipe_events" = type { ptr }
%"class.std::multimap" = type { %"class.std::_Rb_tree.36" }
%"class.std::_Rb_tree.36" = type { %"struct.std::_Rb_tree<std::__cxx11::basic_string<char>, std::pair<const std::__cxx11::basic_string<char>, std::pair<zmq::own_t *, zmq::pipe_t *>>, std::_Select1st<std::pair<const std::__cxx11::basic_string<char>, std::pair<zmq::own_t *, zmq::pipe_t *>>>, std::less<std::__cxx11::basic_string<char>>>::_Rb_tree_impl" }
%"struct.std::_Rb_tree<std::__cxx11::basic_string<char>, std::pair<const std::__cxx11::basic_string<char>, std::pair<zmq::own_t *, zmq::pipe_t *>>, std::_Select1st<std::pair<const std::__cxx11::basic_string<char>, std::pair<zmq::own_t *, zmq::pipe_t *>>>, std::less<std::__cxx11::basic_string<char>>>::_Rb_tree_impl" = type { %"struct.std::_Rb_tree_key_compare.18", %"struct.std::_Rb_tree_header" }
%"class.zmq::socket_base_t::inprocs_t" = type { %"class.std::multimap.40" }
%"class.std::multimap.40" = type { %"class.std::_Rb_tree.41" }
%"class.std::_Rb_tree.41" = type { %"struct.std::_Rb_tree<std::__cxx11::basic_string<char>, std::pair<const std::__cxx11::basic_string<char>, zmq::pipe_t *>, std::_Select1st<std::pair<const std::__cxx11::basic_string<char>, zmq::pipe_t *>>, std::less<std::__cxx11::basic_string<char>>>::_Rb_tree_impl" }
%"struct.std::_Rb_tree<std::__cxx11::basic_string<char>, std::pair<const std::__cxx11::basic_string<char>, zmq::pipe_t *>, std::_Select1st<std::pair<const std::__cxx11::basic_string<char>, zmq::pipe_t *>>, std::less<std::__cxx11::basic_string<char>>>::_Rb_tree_impl" = type { %"struct.std::_Rb_tree_key_compare.18", %"struct.std::_Rb_tree_header" }
%"class.zmq::array_t" = type { %"class.std::vector.45" }
%"class.std::vector.45" = type { %"struct.std::_Vector_base.46" }
%"struct.std::_Vector_base.46" = type { %"struct.std::_Vector_base<zmq::pipe_t *, std::allocator<zmq::pipe_t *>>::_Vector_impl" }
%"struct.std::_Vector_base<zmq::pipe_t *, std::allocator<zmq::pipe_t *>>::_Vector_impl" = type { %"struct.std::_Vector_base<zmq::pipe_t *, std::allocator<zmq::pipe_t *>>::_Vector_impl_data" }
%"struct.std::_Vector_base<zmq::pipe_t *, std::allocator<zmq::pipe_t *>>::_Vector_impl_data" = type { ptr, ptr, ptr }
%"class.zmq::clock_t" = type { i64, i64 }
%"class.std::__cxx11::basic_string" = type { %"struct.std::__cxx11::basic_string<char>::_Alloc_hider", i64, %union.anon }
%"struct.std::__cxx11::basic_string<char>::_Alloc_hider" = type { ptr }
%union.anon = type { i64, [8 x i8] }
%"class.zmq::mutex_t" = type <{ %union.pthread_mutex_t, %union.pthread_mutexattr_t, [4 x i8] }>
%union.pthread_mutex_t = type { %struct.__pthread_mutex_s }
%struct.__pthread_mutex_s = type { i32, i32, i32, i32, i32, i16, i16, %struct.__pthread_internal_list }
%struct.__pthread_internal_list = type { ptr, ptr }
%union.pthread_mutexattr_t = type { i32 }
%"class.zmq::fq_t" = type <{ %"class.zmq::array_t.50", i64, i64, i8, [7 x i8] }>
%"class.zmq::array_t.50" = type { %"class.std::vector.45" }
%"class.zmq::lb_t" = type <{ %"class.zmq::array_t.51", i64, i64, i8, i8, [6 x i8] }>
%"class.zmq::array_t.51" = type { %"class.std::vector.45" }
%"class.zmq::msg_t" = type { %union.anon.52 }
%union.anon.52 = type { %struct.anon }
%struct.anon = type { ptr, [34 x i8], i8, i8, i32, %"union.zmq::msg_t::group_t" }
%"union.zmq::msg_t::group_t" = type { %struct.anon.54 }
%struct.anon.54 = type { i8, ptr }

@stderr = external global ptr, align 8
@.str = private unnamed_addr constant [30 x i8] c"Assertion failed: %s (%s:%d)\0A\00", align 1
@.str.1 = private unnamed_addr constant [6 x i8] c"pipe_\00", align 1
@.str.2 = private unnamed_addr constant [106 x i8] c"generated/home/dtcxzyw/WorkSpace/Projects/compilers/llvm-opt-benchmark/bench/libzmq/libzmq/src/dealer.cpp\00", align 1
@.str.3 = private unnamed_addr constant [12 x i8] c"%s (%s:%d)\0A\00", align 1

; Function Attrs: mustprogress uwtable
define void @_ZN3zmq8dealer_t12xattach_pipeEPNS_6pipe_tEbb(ptr noundef nonnull align 8 dereferenceable(1929) %this, ptr noundef %pipe_, i1 noundef zeroext %subscribe_to_all_, i1 noundef zeroext %locally_initiated_) unnamed_addr #0 align 2 {
entry:
  %this.addr = alloca ptr, align 8
  %pipe_.addr = alloca ptr, align 8
  %subscribe_to_all_.addr = alloca i8, align 1
  %locally_initiated_.addr = alloca i8, align 1
  %probe_msg = alloca %"class.zmq::msg_t", align 8
  %rc = alloca i32, align 4
  %errstr = alloca ptr, align 8
  %errstr23 = alloca ptr, align 8
  store ptr %this, ptr %this.addr, align 8
  store ptr %pipe_, ptr %pipe_.addr, align 8
  %frombool = zext i1 %subscribe_to_all_ to i8
  store i8 %frombool, ptr %subscribe_to_all_.addr, align 1
  %frombool1 = zext i1 %locally_initiated_ to i8
  store i8 %frombool1, ptr %locally_initiated_.addr, align 1
  %this2 = load ptr, ptr %this.addr, align 8
  br label %do.body

do.body:                                          ; preds = %entry
  %0 = load ptr, ptr %pipe_.addr, align 8
  %tobool = icmp ne ptr %0, null
  %lnot = xor i1 %tobool, true
  br i1 %lnot, label %if.then, label %if.end

if.then:                                          ; preds = %do.body
  %1 = load ptr, ptr @stderr, align 8
  %call = call i32 (ptr, ptr, ...) @fprintf(ptr noundef %1, ptr noundef @.str, ptr noundef @.str.1, ptr noundef @.str.2, i32 noundef 28)
  %2 = load ptr, ptr @stderr, align 8
  %call3 = call i32 @fflush(ptr noundef %2)
  call void @_ZN3zmq9zmq_abortEPKc(ptr noundef @.str.1)
  br label %if.end

if.end:                                           ; preds = %if.then, %do.body
  br label %do.end

do.end:                                           ; preds = %if.end
  %_probe_router = getelementptr inbounds %"class.zmq::dealer_t", ptr %this2, i32 0, i32 4
  %3 = load i8, ptr %_probe_router, align 8
  %tobool4 = trunc i8 %3 to i1
  br i1 %tobool4, label %if.then5, label %if.end30

if.then5:                                         ; preds = %do.end
  %call6 = call noundef i32 @_ZN3zmq5msg_t4initEv(ptr noundef nonnull align 8 dereferenceable(64) %probe_msg)
  store i32 %call6, ptr %rc, align 4
  br label %do.body7

do.body7:                                         ; preds = %if.then5
  %4 = load i32, ptr %rc, align 4
  %cmp = icmp eq i32 %4, 0
  %lnot8 = xor i1 %cmp, true
  br i1 %lnot8, label %if.then9, label %if.end14

if.then9:                                         ; preds = %do.body7
  %call10 = call ptr @__errno_location() #10
  %5 = load i32, ptr %call10, align 4
  %call11 = call ptr @strerror(i32 noundef %5) #8
  store ptr %call11, ptr %errstr, align 8
  %6 = load ptr, ptr @stderr, align 8
  %7 = load ptr, ptr %errstr, align 8
  %call12 = call i32 (ptr, ptr, ...) @fprintf(ptr noundef %6, ptr noundef @.str.3, ptr noundef %7, ptr noundef @.str.2, i32 noundef 33)
  %8 = load ptr, ptr @stderr, align 8
  %call13 = call i32 @fflush(ptr noundef %8)
  %9 = load ptr, ptr %errstr, align 8
  call void @_ZN3zmq9zmq_abortEPKc(ptr noundef %9)
  br label %if.end14

if.end14:                                         ; preds = %if.then9, %do.body7
  br label %do.end15

do.end15:                                         ; preds = %if.end14
  %10 = load ptr, ptr %pipe_.addr, align 8
  %call16 = call noundef zeroext i1 @_ZN3zmq6pipe_t5writeEPKNS_5msg_tE(ptr noundef nonnull align 8 dereferenceable(328) %10, ptr noundef %probe_msg)
  %conv = zext i1 %call16 to i32
  store i32 %conv, ptr %rc, align 4
  %11 = load ptr, ptr %pipe_.addr, align 8
  call void @_ZN3zmq6pipe_t5flushEv(ptr noundef nonnull align 8 dereferenceable(328) %11)
  %call17 = call noundef i32 @_ZN3zmq5msg_t5closeEv(ptr noundef nonnull align 8 dereferenceable(64) %probe_msg)
  store i32 %call17, ptr %rc, align 4
  br label %do.body18

do.body18:                                        ; preds = %do.end15
  %12 = load i32, ptr %rc, align 4
  %cmp19 = icmp eq i32 %12, 0
  %lnot20 = xor i1 %cmp19, true
  br i1 %lnot20, label %if.then22, label %if.end28

if.then22:                                        ; preds = %do.body18
  %call24 = call ptr @__errno_location() #10
  %13 = load i32, ptr %call24, align 4
  %call25 = call ptr @strerror(i32 noundef %13) #8
  store ptr %call25, ptr %errstr23, align 8
  %14 = load ptr, ptr @stderr, align 8
  %15 = load ptr, ptr %errstr23, align 8
  %call26 = call i32 (ptr, ptr, ...) @fprintf(ptr noundef %14, ptr noundef @.str.3, ptr noundef %15, ptr noundef @.str.2, i32 noundef 42)
  %16 = load ptr, ptr @stderr, align 8
  %call27 = call i32 @fflush(ptr noundef %16)
  %17 = load ptr, ptr %errstr23, align 8
  call void @_ZN3zmq9zmq_abortEPKc(ptr noundef %17)
  br label %if.end28

if.end28:                                         ; preds = %if.then22, %do.body18
  br label %do.end29

do.end29:                                         ; preds = %if.end28
  br label %if.end30

if.end30:                                         ; preds = %do.end29, %do.end
  %_fq = getelementptr inbounds %"class.zmq::dealer_t", ptr %this2, i32 0, i32 2
  %18 = load ptr, ptr %pipe_.addr, align 8
  call void @_ZN3zmq4fq_t6attachEPNS_6pipe_tE(ptr noundef nonnull align 8 dereferenceable(41) %_fq, ptr noundef %18)
  %_lb = getelementptr inbounds %"class.zmq::dealer_t", ptr %this2, i32 0, i32 3
  %19 = load ptr, ptr %pipe_.addr, align 8
  call void @_ZN3zmq4lb_t6attachEPNS_6pipe_tE(ptr noundef nonnull align 8 dereferenceable(42) %_lb, ptr noundef %19)
  ret void
}