; Function Attrs: mustprogress uwtable
define void @_ZN3zmq8dealer_t12xattach_pipeEPNS_6pipe_tEbb(ptr noundef nonnull align 8 dereferenceable(1929) %this, ptr noundef %pipe_, i1 zeroext %subscribe_to_all_, i1 zeroext %locally_initiated_) unnamed_addr #0 align 2 {
entry:
  %probe_msg = alloca %"class.zmq::msg_t", align 8
  %tobool.not = icmp eq ptr %pipe_, null
  br i1 %tobool.not, label %if.then, label %do.end

if.then:                                          ; preds = %entry
  %0 = load ptr, ptr @stderr, align 8
  %call = tail call i32 (ptr, ptr, ...) @fprintf(ptr noundef %0, ptr noundef nonnull @.str, ptr noundef nonnull @.str.1, ptr noundef nonnull @.str.2, i32 noundef 28) #11
  %1 = load ptr, ptr @stderr, align 8
  %call3 = tail call i32 @fflush(ptr noundef %1)
  tail call void @_ZN3zmq9zmq_abortEPKc(ptr noundef nonnull @.str.1)
  br label %do.end

do.end:                                           ; preds = %entry, %if.then
  %_probe_router = getelementptr inbounds i8, ptr %this, i64 1928
  %2 = load i8, ptr %_probe_router, align 8
  %3 = and i8 %2, 1
  %tobool4.not = icmp eq i8 %3, 0
  br i1 %tobool4.not, label %if.end30, label %if.then5

if.then5:                                         ; preds = %do.end
  %call6 = call noundef i32 @_ZN3zmq5msg_t4initEv(ptr noundef nonnull align 8 dereferenceable(64) %probe_msg)
  %cmp.not = icmp eq i32 %call6, 0
  br i1 %cmp.not, label %do.end15, label %if.then9

if.then9:                                         ; preds = %if.then5
  %call10 = tail call ptr @__errno_location() #12
  %4 = load i32, ptr %call10, align 4
  %call11 = call ptr @strerror(i32 noundef %4) #9
  %5 = load ptr, ptr @stderr, align 8
  %call12 = call i32 (ptr, ptr, ...) @fprintf(ptr noundef %5, ptr noundef nonnull @.str.3, ptr noundef %call11, ptr noundef nonnull @.str.2, i32 noundef 33) #11
  %6 = load ptr, ptr @stderr, align 8
  %call13 = call i32 @fflush(ptr noundef %6)
  call void @_ZN3zmq9zmq_abortEPKc(ptr noundef %call11)
  br label %do.end15

do.end15:                                         ; preds = %if.then5, %if.then9
  %call16 = call noundef zeroext i1 @_ZN3zmq6pipe_t5writeEPKNS_5msg_tE(ptr noundef nonnull align 8 dereferenceable(328) %pipe_, ptr noundef nonnull %probe_msg)
  call void @_ZN3zmq6pipe_t5flushEv(ptr noundef nonnull align 8 dereferenceable(328) %pipe_)
  %call17 = call noundef i32 @_ZN3zmq5msg_t5closeEv(ptr noundef nonnull align 8 dereferenceable(64) %probe_msg)
  %cmp19.not = icmp eq i32 %call17, 0
  br i1 %cmp19.not, label %if.end30, label %if.then22

if.then22:                                        ; preds = %do.end15
  %call24 = tail call ptr @__errno_location() #12
  %7 = load i32, ptr %call24, align 4
  %call25 = call ptr @strerror(i32 noundef %7) #9
  %8 = load ptr, ptr @stderr, align 8
  %call26 = call i32 (ptr, ptr, ...) @fprintf(ptr noundef %8, ptr noundef nonnull @.str.3, ptr noundef %call25, ptr noundef nonnull @.str.2, i32 noundef 42) #11
  %9 = load ptr, ptr @stderr, align 8
  %call27 = call i32 @fflush(ptr noundef %9)
  call void @_ZN3zmq9zmq_abortEPKc(ptr noundef %call25)
  br label %if.end30

if.end30:                                         ; preds = %if.then22, %do.end15, %do.end
  %_fq = getelementptr inbounds i8, ptr %this, i64 1832
  call void @_ZN3zmq4fq_t6attachEPNS_6pipe_tE(ptr noundef nonnull align 8 dereferenceable(41) %_fq, ptr noundef %pipe_)
  %_lb = getelementptr inbounds i8, ptr %this, i64 1880
  call void @_ZN3zmq4lb_t6attachEPNS_6pipe_tE(ptr noundef nonnull align 8 dereferenceable(42) %_lb, ptr noundef %pipe_)
  ret void
}